; Function Attrs: mustprogress nounwind uwtable
define hidden noundef i64 @_ZN20PSAdaptiveSizePolicy42promo_increment_with_supplement_aligned_upEm(ptr noundef nonnull align 8 dereferenceable(312) %0, i64 noundef %1) local_unnamed_addr #0 align 2 {
  %3 = load i32, ptr @TenuredGenerationSizeIncrement, align 4
  %4 = getelementptr inbounds i8, ptr %0, i64 308
  %5 = load i32, ptr %4, align 4
  %6 = add i32 %5, %3
  %7 = tail call noundef i64 @_ZN18AdaptiveSizePolicy15promo_incrementEmj(ptr noundef nonnull align 8 dereferenceable(232) %0, i64 noundef %1, i32 noundef %6) #7
  %8 = getelementptr inbounds i8, ptr %0, i64 280
  %9 = load i64, ptr %8, align 8
  %10 = add i64 %7, -1
  %11 = add i64 %10, %9
  %12 = sub i64 0, %9
  %13 = and i64 %11, %12
  ret i64 %13
}